target datalayout = "e-m:e-p270:32:32-p271:32:32-p272:64:64-i64:64-i128:128-f80:128-n8:16:32:64-S128"
target triple = "x86_64-unknown-linux-gnu"

%struct._DBusDisplayConsole = type { %struct._GDBusObjectSkeleton, %struct.DisplayChangeListener, ptr, ptr, ptr, ptr, ptr, ptr, ptr, i32, i32, i32, %struct.Notifier }
%struct._GDBusObjectSkeleton = type { %struct._GObject, ptr }
%struct._GObject = type { %struct._GTypeInstance, i32, ptr }
%struct._GTypeInstance = type { ptr }
%struct.DisplayChangeListener = type { i64, ptr, ptr, ptr, %struct.anon }
%struct.anon = type { ptr, ptr }
%struct.Notifier = type { ptr, %struct.anon.0 }
%struct.anon.0 = type { ptr, ptr }
%struct.timeval = type { i64, i64 }

@trace_events_enabled_count = external global i32, align 4
@message_with_timestamp = external global i8, align 1
@qemu_loglevel = external global i32, align 4
@_TRACE_DBUS_KBD_RELEASE_DSTATE = external global i16, align 2
@.str.38 = private unnamed_addr constant [42 x i8] c"%d@%zu.%06zu:dbus_kbd_release keycode %u\0A\00", align 1
@.str.39 = private unnamed_addr constant [29 x i8] c"dbus_kbd_release keycode %u\0A\00", align 1

; Function Attrs: nounwind sspstrong uwtable
define internal zeroext i1 @qemu_loglevel_mask(i32 noundef %mask) #0 {
entry:
  %mask.addr = alloca i32, align 4
  store i32 %mask, ptr %mask.addr, align 4
  %0 = load i32, ptr @qemu_loglevel, align 4
  %1 = load i32, ptr %mask.addr, align 4
  %and = and i32 %0, %1
  %cmp = icmp ne i32 %and, 0
  ret i1 %cmp
}

; Function Attrs: nounwind sspstrong uwtable
define internal void @_nocheck__trace_dbus_kbd_release(i32 noundef %keycode) #0 {
entry:
  %keycode.addr = alloca i32, align 4
  %_now = alloca %struct.timeval, align 8
  store i32 %keycode, ptr %keycode.addr, align 4
  %0 = load i32, ptr @trace_events_enabled_count, align 4
  %tobool = icmp ne i32 %0, 0
  %lnot = xor i1 %tobool, true
  %lnot1 = xor i1 %lnot, true
  %lnot.ext = zext i1 %lnot1 to i32
  %conv = sext i32 %lnot.ext to i64
  %tobool2 = icmp ne i64 %conv, 0
  br i1 %tobool2, label %land.lhs.true, label %if.end11

land.lhs.true:                                    ; preds = %entry
  %1 = load i16, ptr @_TRACE_DBUS_KBD_RELEASE_DSTATE, align 2
  %conv3 = zext i16 %1 to i32
  %tobool4 = icmp ne i32 %conv3, 0
  br i1 %tobool4, label %land.lhs.true5, label %if.end11

land.lhs.true5:                                   ; preds = %land.lhs.true
  %call = call zeroext i1 @qemu_loglevel_mask(i32 noundef 32768)
  br i1 %call, label %if.then, label %if.end11

if.then:                                          ; preds = %land.lhs.true5
  %2 = load i8, ptr @message_with_timestamp, align 1
  %tobool7 = trunc i8 %2 to i1
  br i1 %tobool7, label %if.then8, label %if.else

if.then8:                                         ; preds = %if.then
  %call9 = call i32 @gettimeofday(ptr noundef %_now, ptr noundef null) #9
  %call10 = call i32 @qemu_get_thread_id()
  %tv_sec = getelementptr inbounds %struct.timeval, ptr %_now, i32 0, i32 0
  %3 = load i64, ptr %tv_sec, align 8
  %tv_usec = getelementptr inbounds %struct.timeval, ptr %_now, i32 0, i32 1
  %4 = load i64, ptr %tv_usec, align 8
  %5 = load i32, ptr %keycode.addr, align 4
  call void (ptr, ...) @qemu_log(ptr noundef @.str.38, i32 noundef %call10, i64 noundef %3, i64 noundef %4, i32 noundef %5)
  br label %if.end

if.else:                                          ; preds = %if.then
  %6 = load i32, ptr %keycode.addr, align 4
  call void (ptr, ...) @qemu_log(ptr noundef @.str.39, i32 noundef %6)
  br label %if.end

if.end:                                           ; preds = %if.else, %if.then8
  br label %if.end11

if.end11:                                         ; preds = %if.end, %land.lhs.true5, %land.lhs.true, %entry
  ret void
}

; Function Attrs: nounwind sspstrong uwtable
define internal void @trace_dbus_kbd_release(i32 noundef %keycode) #0 {
entry:
  %keycode.addr = alloca i32, align 4
  store i32 %keycode, ptr %keycode.addr, align 4
  %0 = load i32, ptr %keycode.addr, align 4
  call void @_nocheck__trace_dbus_kbd_release(i32 noundef %0)
  ret void
}

; Function Attrs: nounwind sspstrong uwtable
define internal i32 @dbus_kbd_release(ptr noundef %ddc, ptr noundef %invocation, i32 noundef %arg_keycode) #0 {
entry:
  %ddc.addr = alloca ptr, align 8
  %invocation.addr = alloca ptr, align 8
  %arg_keycode.addr = alloca i32, align 4
  %qcode = alloca i32, align 4
  store ptr %ddc, ptr %ddc.addr, align 8
  store ptr %invocation, ptr %invocation.addr, align 8
  store i32 %arg_keycode, ptr %arg_keycode.addr, align 4
  %0 = load i32, ptr %arg_keycode.addr, align 4
  %call = call i32 @qemu_input_key_number_to_qcode(i32 noundef %0)
  store i32 %call, ptr %qcode, align 4
  %1 = load i32, ptr %arg_keycode.addr, align 4
  call void @trace_dbus_kbd_release(i32 noundef %1)
  %2 = load ptr, ptr %ddc.addr, align 8
  %kbd = getelementptr inbounds %struct._DBusDisplayConsole, ptr %2, i32 0, i32 6
  %3 = load ptr, ptr %kbd, align 8
  %4 = load i32, ptr %qcode, align 4
  call void @qkbd_state_key_event(ptr noundef %3, i32 noundef %4, i1 noundef zeroext false)
  %5 = load ptr, ptr %ddc.addr, align 8
  %iface_kbd = getelementptr inbounds %struct._DBusDisplayConsole, ptr %5, i32 0, i32 5
  %6 = load ptr, ptr %iface_kbd, align 8
  %7 = load ptr, ptr %invocation.addr, align 8
  call void @qemu_dbus_display1_keyboard_complete_release(ptr noundef %6, ptr noundef %7)
  ret i32 1
}